target datalayout = "e-m:e-p270:32:32-p271:32:32-p272:64:64-i64:64-i128:128-f80:128-n8:16:32:64-S128"
target triple = "x86_64-pc-linux-gnu"

%"struct.std::_Vector_base" = type { %"struct.std::_Vector_base<unsigned char, std::allocator<unsigned char>>::_Vector_impl" }
%"struct.std::_Vector_base<unsigned char, std::allocator<unsigned char>>::_Vector_impl" = type { %"struct.std::_Vector_base<unsigned char, std::allocator<unsigned char>>::_Vector_impl_data" }
%"struct.std::_Vector_base<unsigned char, std::allocator<unsigned char>>::_Vector_impl_data" = type { ptr, ptr, ptr }

@.str = private unnamed_addr constant [24 x i8] c"error reading from file\00", align 1
@_ZTISt13runtime_error = external constant ptr

; Function Attrs: mustprogress nounwind uwtable
define linkonce_odr dso_local noundef ptr @_ZNKSt6vectorIhSaIhEE11_M_data_ptrIhEEPT_S4_(ptr noundef nonnull align 8 dereferenceable(24) %0, ptr noundef %1) #4 comdat align 2 {
  %3 = alloca ptr, align 8
  %4 = alloca ptr, align 8
  store ptr %0, ptr %3, align 8, !tbaa !9
  store ptr %1, ptr %4, align 8, !tbaa !18
  %5 = load ptr, ptr %4, align 8, !tbaa !18
  ret ptr %5
}

; Function Attrs: mustprogress nounwind uwtable
define linkonce_odr dso_local noundef ptr @_ZNSt6vectorIhSaIhEE4dataEv(ptr noundef nonnull align 8 dereferenceable(24) %0) #4 comdat align 2 {
  %2 = alloca ptr, align 8
  store ptr %0, ptr %2, align 8, !tbaa !9
  %3 = load ptr, ptr %2, align 8
  %4 = getelementptr inbounds nuw %"struct.std::_Vector_base", ptr %3, i32 0, i32 0
  %5 = getelementptr inbounds nuw %"struct.std::_Vector_base<unsigned char, std::allocator<unsigned char>>::_Vector_impl_data", ptr %4, i32 0, i32 0
  %6 = load ptr, ptr %5, align 8, !tbaa !13
  %7 = call noundef ptr @_ZNKSt6vectorIhSaIhEE11_M_data_ptrIhEEPT_S4_(ptr noundef nonnull align 8 dereferenceable(24) %3, ptr noundef %6) #16
  ret ptr %7
}

; Function Attrs: mustprogress uwtable
define dso_local void @_ZN3igl16read_file_binaryEP8_IO_FILERSt6vectorIhSaIhEE(ptr noundef %0, ptr noundef nonnull align 8 dereferenceable(24) %1) #0 personality ptr @__gxx_personality_v0 {
  %3 = alloca ptr, align 8
  %4 = alloca ptr, align 8
  %5 = alloca i64, align 8
  %6 = alloca i32, align 4
  %7 = alloca ptr, align 8
  %8 = alloca i32, align 4
  store ptr %0, ptr %3, align 8, !tbaa !4
  store ptr %1, ptr %4, align 8, !tbaa !9
  %9 = load ptr, ptr %3, align 8, !tbaa !4
  %10 = call i32 @ferror(ptr noundef %9) #16
  %11 = icmp ne i32 %10, 0
  br i1 %11, label %35, label %12

12:                                               ; preds = %2
  %13 = load ptr, ptr %3, align 8, !tbaa !4
  %14 = call i32 @fseek(ptr noundef %13, i64 noundef 0, i32 noundef 2)
  call void @llvm.lifetime.start.p0(i64 8, ptr %5) #16
  %15 = load ptr, ptr %3, align 8, !tbaa !4
  %16 = call i64 @ftell(ptr noundef %15)
  store i64 %16, ptr %5, align 8, !tbaa !11
  %17 = load ptr, ptr %3, align 8, !tbaa !4
  %18 = call i32 @fseek(ptr noundef %17, i64 noundef 0, i32 noundef 0)
  %19 = load ptr, ptr %4, align 8, !tbaa !9
  %20 = load i64, ptr %5, align 8, !tbaa !11
  call void @_ZNSt6vectorIhSaIhEE6resizeEm(ptr noundef nonnull align 8 dereferenceable(24) %19, i64 noundef %20)
  %21 = load ptr, ptr %4, align 8, !tbaa !9
  %22 = call noundef ptr @_ZNSt6vectorIhSaIhEE4dataEv(ptr noundef nonnull align 8 dereferenceable(24) %21) #16
  %23 = load i64, ptr %5, align 8, !tbaa !11
  %24 = load ptr, ptr %3, align 8, !tbaa !4
  %25 = call i64 @fread(ptr noundef %22, i64 noundef 1, i64 noundef %23, ptr noundef %24)
  %26 = load i64, ptr %5, align 8, !tbaa !11
  %27 = icmp eq i64 %25, %26
  br i1 %27, label %28, label %31

28:                                               ; preds = %12
  %29 = load ptr, ptr %3, align 8, !tbaa !4
  %30 = call i32 @fclose(ptr noundef %29)
  store i32 1, ptr %6, align 4
  br label %32

31:                                               ; preds = %12
  store i32 0, ptr %6, align 4
  br label %32

32:                                               ; preds = %31, %28
  call void @llvm.lifetime.end.p0(i64 8, ptr %5) #16
  %33 = load i32, ptr %6, align 4
  switch i32 %33, label %48 [
    i32 0, label %34
    i32 1, label %42
  ]

34:                                               ; preds = %32
  br label %35

35:                                               ; preds = %34, %2
  %36 = call ptr @__cxa_allocate_exception(i64 16) #16
  invoke void @_ZNSt13runtime_errorC1EPKc(ptr noundef nonnull align 8 dereferenceable(16) %36, ptr noundef @.str)
          to label %37 unwind label %38

37:                                               ; preds = %35
  call void @__cxa_throw(ptr %36, ptr @_ZTISt13runtime_error, ptr @_ZNSt13runtime_errorD1Ev) #17
  unreachable

38:                                               ; preds = %35
  %39 = landingpad { ptr, i32 }
          cleanup
  %40 = extractvalue { ptr, i32 } %39, 0
  store ptr %40, ptr %7, align 8
  %41 = extractvalue { ptr, i32 } %39, 1
  store i32 %41, ptr %8, align 4
  call void @__cxa_free_exception(ptr %36) #16
  br label %43

42:                                               ; preds = %32
  ret void

43:                                               ; preds = %38
  %44 = load ptr, ptr %7, align 8
  %45 = load i32, ptr %8, align 4
  %46 = insertvalue { ptr, i32 } poison, ptr %44, 0
  %47 = insertvalue { ptr, i32 } %46, i32 %45, 1
  resume { ptr, i32 } %47

48:                                               ; preds = %32
  unreachable
}