; Function Attrs: mustprogress uwtable
define dso_local void @_ZN3igl16read_file_binaryEP8_IO_FILERSt6vectorIhSaIhEE(ptr noundef captures(none) %0, ptr noundef nonnull align 8 dereferenceable(24) %1) local_unnamed_addr #0 personality ptr @__gxx_personality_v0 {
  %3 = tail call i32 @ferror(ptr noundef %0) #13
  %.not = icmp eq i32 %3, 0
  br i1 %.not, label %4, label %.thread

4:                                                ; preds = %2
  %5 = tail call i32 @fseek(ptr noundef %0, i64 noundef 0, i32 noundef 2)
  %6 = tail call i64 @ftell(ptr noundef %0)
  %7 = tail call i32 @fseek(ptr noundef %0, i64 noundef 0, i32 noundef 0)
  tail call void @_ZNSt6vectorIhSaIhEE6resizeEm(ptr noundef nonnull align 8 dereferenceable(24) %1, i64 noundef %6)
  %8 = load ptr, ptr %1, align 8, !tbaa !4
  %9 = tail call i64 @fread(ptr noundef %8, i64 noundef 1, i64 noundef %6, ptr noundef %0)
  %10 = icmp eq i64 %9, %6
  br i1 %10, label %15, label %.thread

.thread:                                          ; preds = %4, %2
  %11 = tail call ptr @__cxa_allocate_exception(i64 16) #13
  invoke void @_ZNSt13runtime_errorC1EPKc(ptr noundef nonnull align 8 dereferenceable(16) %11, ptr noundef nonnull @.str)
          to label %12 unwind label %13

12:                                               ; preds = %.thread
  tail call void @__cxa_throw(ptr nonnull %11, ptr nonnull @_ZTISt13runtime_error, ptr nonnull @_ZNSt13runtime_errorD1Ev) #14
  unreachable

13:                                               ; preds = %.thread
  %14 = landingpad { ptr, i32 }
          cleanup
  tail call void @__cxa_free_exception(ptr nonnull %11) #13
  resume { ptr, i32 } %14

15:                                               ; preds = %4
  %16 = tail call i32 @fclose(ptr noundef %0)
  ret void
}